target datalayout = "e-m:e-p270:32:32-p271:32:32-p272:64:64-i64:64-i128:128-f80:128-n8:16:32:64-S128"
target triple = "x86_64-pc-linux-gnu"

%struct.helper = type { ptr, %struct.ossl_quic_tx_packetiser_args_st, %struct.ossl_qtx_args_st, ptr, ptr, %struct.quic_txfc_st, %struct.quic_rxfc_st, %struct.quic_rxfc_st, %struct.quic_rxfc_st, %struct.quic_rxfc_st, %struct.ossl_statm_st, ptr, ptr, %struct.quic_stream_map_st, i8, i8, ptr, ptr, %struct.ossl_qrx_args_st, ptr, %struct.PACKET, i64, %union.anon.0, [16 x %struct.ossl_quic_ack_range_st] }
%struct.ossl_quic_tx_packetiser_args_st = type { %struct.quic_conn_id_st, %struct.quic_conn_id_st, %union.bio_addr_st, i32, ptr, ptr, ptr, ptr, ptr, ptr, ptr, ptr, ptr, ptr, ptr, ptr, ptr, ptr, ptr, i32, [3 x ptr] }
%struct.quic_conn_id_st = type { i8, [20 x i8] }
%union.bio_addr_st = type { %struct.sockaddr_in6, [84 x i8] }
%struct.sockaddr_in6 = type { i16, i16, i32, %struct.in6_addr, i32 }
%struct.in6_addr = type { %union.anon }
%union.anon = type { [4 x i32] }
%struct.ossl_qtx_args_st = type { ptr, ptr, ptr, i64, ptr, ptr }
%struct.quic_txfc_st = type { ptr, i64, i64, i8 }
%struct.quic_rxfc_st = type { i64, i64, i64, i64, i64, i64, i64, %struct.OSSL_TIME, ptr, ptr, ptr, i8, i8, i8, i8 }
%struct.OSSL_TIME = type { i64 }
%struct.ossl_statm_st = type { %struct.OSSL_TIME, %struct.OSSL_TIME, %struct.OSSL_TIME, %struct.OSSL_TIME, i8 }
%struct.quic_stream_map_st = type { ptr, %struct.quic_stream_list_node_st, %struct.quic_stream_list_node_st, %struct.quic_stream_list_node_st, i64, i64, i64, i64, i64, ptr, ptr, ptr, ptr, ptr, i32 }
%struct.quic_stream_list_node_st = type { ptr, ptr }
%struct.ossl_qrx_args_st = type { ptr, ptr, ptr, i64, i64, [3 x i64], i8 }
%struct.PACKET = type { ptr, i64 }
%union.anon.0 = type { %struct.ossl_quic_frame_new_conn_id_st }
%struct.ossl_quic_frame_new_conn_id_st = type { i64, i64, %struct.quic_conn_id_st, %struct.QUIC_STATELESS_RESET_TOKEN }
%struct.QUIC_STATELESS_RESET_TOKEN = type { [16 x i8] }
%struct.ossl_quic_ack_range_st = type { i64, i64 }
%struct.ossl_ackm_rx_pkt_st = type { i64, %struct.OSSL_TIME, i8 }

@.str.2 = private unnamed_addr constant [32 x i8] c"../openssl/test/quic_txp_test.c\00", align 1
@.str.128 = private unnamed_addr constant [46 x i8] c"ossl_ackm_on_rx_packet(h->args.ackm, &rx_pkt)\00", align 1

; Function Attrs: nounwind uwtable
define internal i64 @fake_now(ptr noundef %0) #0 {
  %2 = alloca %struct.OSSL_TIME, align 8
  %3 = alloca ptr, align 8
  store ptr %0, ptr %3, align 8, !tbaa !109
  %4 = call i64 @ossl_time_now()
  %5 = getelementptr inbounds nuw %struct.OSSL_TIME, ptr %2, i32 0, i32 0
  store i64 %4, ptr %5, align 8
  %6 = getelementptr inbounds nuw %struct.OSSL_TIME, ptr %2, i32 0, i32 0
  %7 = load i64, ptr %6, align 8
  ret i64 %7
}

; Function Attrs: nounwind uwtable
define internal i32 @schedule_ack(ptr noundef %0) #0 {
  %2 = alloca i32, align 4
  %3 = alloca ptr, align 8
  %4 = alloca i64, align 8
  %5 = alloca %struct.ossl_ackm_rx_pkt_st, align 8
  %6 = alloca %struct.OSSL_TIME, align 8
  %7 = alloca i32, align 4
  store ptr %0, ptr %3, align 8, !tbaa !82
  call void @llvm.lifetime.start.p0(i64 8, ptr %4) #7
  call void @llvm.lifetime.start.p0(i64 24, ptr %5) #7
  call void @llvm.memset.p0.i64(ptr align 8 %5, i8 0, i64 24, i1 false)
  store i64 0, ptr %4, align 8, !tbaa !11
  br label %8

8:                                                ; preds = %36, %1
  %9 = load i64, ptr %4, align 8, !tbaa !11
  %10 = icmp ult i64 %9, 5
  br i1 %10, label %11, label %39

11:                                               ; preds = %8
  %12 = load i64, ptr %4, align 8, !tbaa !11
  %13 = getelementptr inbounds nuw %struct.ossl_ackm_rx_pkt_st, ptr %5, i32 0, i32 0
  store i64 %12, ptr %13, align 8, !tbaa !134
  %14 = getelementptr inbounds nuw %struct.ossl_ackm_rx_pkt_st, ptr %5, i32 0, i32 1
  call void @llvm.lifetime.start.p0(i64 8, ptr %6) #7
  %15 = call i64 @fake_now(ptr noundef null)
  %16 = getelementptr inbounds nuw %struct.OSSL_TIME, ptr %6, i32 0, i32 0
  store i64 %15, ptr %16, align 8
  call void @llvm.memcpy.p0.p0.i64(ptr align 8 %14, ptr align 8 %6, i64 8, i1 false), !tbaa.struct !136
  call void @llvm.lifetime.end.p0(i64 8, ptr %6) #7
  %17 = getelementptr inbounds nuw %struct.ossl_ackm_rx_pkt_st, ptr %5, i32 0, i32 2
  %18 = load i8, ptr %17, align 8
  %19 = and i8 %18, -4
  %20 = or i8 %19, 2
  store i8 %20, ptr %17, align 8
  %21 = getelementptr inbounds nuw %struct.ossl_ackm_rx_pkt_st, ptr %5, i32 0, i32 2
  %22 = load i8, ptr %21, align 8
  %23 = and i8 %22, -5
  %24 = or i8 %23, 4
  store i8 %24, ptr %21, align 8
  %25 = load ptr, ptr %3, align 8, !tbaa !82
  %26 = getelementptr inbounds nuw %struct.helper, ptr %25, i32 0, i32 1
  %27 = getelementptr inbounds nuw %struct.ossl_quic_tx_packetiser_args_st, ptr %26, i32 0, i32 7
  %28 = load ptr, ptr %27, align 8, !tbaa !94
  %29 = call i32 @ossl_ackm_on_rx_packet(ptr noundef %28, ptr noundef %5)
  %30 = icmp ne i32 %29, 0
  %31 = zext i1 %30 to i32
  %32 = call i32 @test_true(ptr noundef @.str.2, i32 noundef 572, ptr noundef @.str.128, i32 noundef %31)
  %33 = icmp ne i32 %32, 0
  br i1 %33, label %35, label %34

34:                                               ; preds = %11
  store i32 0, ptr %2, align 4
  store i32 1, ptr %7, align 4
  br label %40

35:                                               ; preds = %11
  br label %36

36:                                               ; preds = %35
  %37 = load i64, ptr %4, align 8, !tbaa !11
  %38 = add i64 %37, 1
  store i64 %38, ptr %4, align 8, !tbaa !11
  br label %8, !llvm.loop !137

39:                                               ; preds = %8
  store i32 1, ptr %2, align 4
  store i32 1, ptr %7, align 4
  br label %40

40:                                               ; preds = %39, %34
  call void @llvm.lifetime.end.p0(i64 24, ptr %5) #7
  call void @llvm.lifetime.end.p0(i64 8, ptr %4) #7
  %41 = load i32, ptr %2, align 4
  ret i32 %41
}