; Function Attrs: nounwind uwtable
define internal range(i32 0, 2) i32 @schedule_ack(ptr noundef readonly captures(none) %0) #0 {
  %2 = alloca %struct.ossl_ackm_rx_pkt_st, align 8
  call void @llvm.lifetime.start.p0(i64 24, ptr nonnull %2) #8
  %3 = getelementptr inbounds nuw i8, ptr %2, i64 8
  call void @llvm.memset.p0.i64(ptr noundef nonnull align 8 dereferenceable(24) %3, i8 0, i64 16, i1 false)
  %4 = getelementptr inbounds nuw i8, ptr %2, i64 8
  %5 = getelementptr inbounds nuw i8, ptr %2, i64 16
  %6 = getelementptr inbounds nuw i8, ptr %0, i64 192
  br label %9

7:                                                ; preds = %9
  %8 = add nuw nsw i64 %.045, 1
  %exitcond.not = icmp eq i64 %8, 5
  br i1 %exitcond.not, label %19, label %9, !llvm.loop !118

9:                                                ; preds = %1, %7
  %.045 = phi i64 [ 0, %1 ], [ %8, %7 ]
  store i64 %.045, ptr %2, align 8, !tbaa !119
  %10 = call i64 @ossl_time_now() #8
  store i64 %10, ptr %4, align 8, !tbaa !102
  %11 = load i8, ptr %5, align 8
  %12 = and i8 %11, -8
  %13 = or disjoint i8 %12, 6
  store i8 %13, ptr %5, align 8
  %14 = load ptr, ptr %6, align 8, !tbaa !57
  %15 = call i32 @ossl_ackm_on_rx_packet(ptr noundef %14, ptr noundef nonnull %2) #8
  %16 = icmp ne i32 %15, 0
  %17 = zext i1 %16 to i32
  %18 = call i32 @test_true(ptr noundef nonnull @.str.2, i32 noundef 572, ptr noundef nonnull @.str.128, i32 noundef %17) #8
  %.not = icmp eq i32 %18, 0
  br i1 %.not, label %19, label %7

19:                                               ; preds = %7, %9
  %.0 = phi i32 [ 0, %9 ], [ 1, %7 ]
  call void @llvm.lifetime.end.p0(i64 24, ptr nonnull %2) #8
  ret i32 %.0
}